Certificate:
    Data:
        Version: 3 (0x2)
        Serial Number: 2 (0x2)
        Signature Algorithm: ecdsa-with-SHA256
        Issuer: C=US, O=Google, OU=Enterprise, CN=Single Root CA
        Validity
            Not Before: Oct 27 12:35:04 2024 GMT
            Not After : Oct 27 12:35:04 2034 GMT
        Subject: C=US, O=Google, OU=Enterprise, CN=grpc.domain.com
        Subject Public Key Info:
            Public Key Algorithm: id-ecPublicKey
                Public-Key: (256 bit)
                pub:
                    04:4f:e7:d5:29:90:07:76:15:70:da:2a:c4:23:3d:
                    0c:7d:dc:85:04:07:6b:0e:79:56:8d:2c:07:d0:10:
                    0e:0a:0b:5f:4d:45:0d:29:46:5e:84:d1:20:0f:75:
                    1f:7f:9f:ad:e9:01:a5:3e:32:ad:f7:8d:14:00:31:
                    f0:e4:ff:f8:8f
                ASN1 OID: prime256v1
                NIST CURVE: P-256
        X509v3 extensions:
            X509v3 Key Usage: critical
                Digital Signature
            X509v3 Basic Constraints: 
                CA:FALSE
            X509v3 Extended Key Usage: 
                TLS Web Server Authentication
            X509v3 Subject Key Identifier: 
                A6:E0:89:EB:1A:CD:57:3A:9E:6E:DA:8E:EC:42:0E:93:82:3C:E8:78
            X509v3 Authority Key Identifier: 
                A2:2F:36:0D:D8:61:97:A5:76:DA:7C:62:25:3A:A6:4E:B0:56:87:F7
            Authority Information Access: 
                CA Issuers - URI:http://pki.esodemoapp2.com/ca/root-ca.cer
            X509v3 CRL Distribution Points: 
                Full Name:
                  URI:http://pki.esodemoapp2.com/ca/root-ca.crl
            X509v3 Subject Alternative Name: 
                DNS:grpc.domain.com
    Signature Algorithm: ecdsa-with-SHA256
    Signature Value:
        30:45:02:20:38:6f:80:ce:d9:e7:08:6b:5a:89:db:42:f7:60:
        36:a7:56:da:f5:d4:82:3e:51:1a:87:ac:28:74:87:1a:f1:d0:
        02:21:00:ad:b2:a4:75:cf:dd:f0:1a:aa:c7:05:f3:22:11:a7:
        a8:ef:6e:43:8d:40:a7:8e:3d:d8:8b:3e:e6:74:39:48:ca
-----BEGIN CERTIFICATE-----
MIICnTCCAkOgAwIBAgIBAjAKBggqhkjOPQQDAjBMMQswCQYDVQQGEwJVUzEPMA0G
A1UECgwGR29vZ2xlMRMwEQYDVQQLDApFbnRlcnByaXNlMRcwFQYDVQQDDA5TaW5n
bGUgUm9vdCBDQTAeFw0yNDEwMjcxMjM1MDRaFw0zNDEwMjcxMjM1MDRaME0xCzAJ
BgNVBAYTAlVTMQ8wDQYDVQQKDAZHb29nbGUxEzARBgNVBAsMCkVudGVycHJpc2Ux
GDAWBgNVBAMMD2dycGMuZG9tYWluLmNvbTBZMBMGByqGSM49AgEGCCqGSM49AwEH
A0IABE/n1SmQB3YVcNoqxCM9DH3chQQHaw55Vo0sB9AQDgoLX01FDSlGXoTRIA91
H3+frekBpT4yrfeNFAAx8OT/+I+jggETMIIBDzAOBgNVHQ8BAf8EBAMCB4AwCQYD
VR0TBAIwADATBgNVHSUEDDAKBggrBgEFBQcDATAdBgNVHQ4EFgQUpuCJ6xrNVzqe
btqO7EIOk4I86HgwHwYDVR0jBBgwFoAUoi82Ddhhl6V22nxiJTqmTrBWh/cwRQYI
KwYBBQUHAQEEOTA3MDUGCCsGAQUFBzAChilodHRwOi8vcGtpLmVzb2RlbW9hcHAy
LmNvbS9jYS9yb290LWNhLmNlcjA6BgNVHR8EMzAxMC+gLaArhilodHRwOi8vcGtp
LmVzb2RlbW9hcHAyLmNvbS9jYS9yb290LWNhLmNybDAaBgNVHREEEzARgg9ncnBj
LmRvbWFpbi5jb20wCgYIKoZIzj0EAwIDSAAwRQIgOG+AztnnCGtaidtC92A2p1ba
9dSCPlEah6wodIca8dACIQCtsqR1z93wGqrHBfMiEaeo725DjUCnjj3Yiz7mdDlI
yg==
-----END CERTIFICATE-----
