Certificate:
    Data:
        Version: 3 (0x2)
        Serial Number: 3 (0x3)
        Signature Algorithm: ecdsa-with-SHA256
        Issuer: C=US, O=Google, OU=Enterprise, CN=Single Root CA
        Validity
            Not Before: Oct 27 12:35:39 2024 GMT
            Not After : Oct 27 12:35:39 2034 GMT
        Subject: C=US, O=Google, OU=Enterprise, CN=client.domain.com
        Subject Public Key Info:
            Public Key Algorithm: id-ecPublicKey
                Public-Key: (256 bit)
                pub:
                    04:f7:86:f8:09:02:c1:65:02:3a:c5:3d:39:f0:63:
                    4e:ee:7e:42:38:71:d6:e8:13:bf:be:29:41:2f:9f:
                    a0:3a:e6:77:0d:e7:2a:e3:b4:10:1e:06:62:ee:6d:
                    a7:7d:dc:fa:b5:e0:c6:b5:81:b0:38:32:8b:40:f5:
                    b3:ce:44:cb:cc
                ASN1 OID: prime256v1
                NIST CURVE: P-256
        X509v3 extensions:
            X509v3 Key Usage: critical
                Digital Signature
            X509v3 Basic Constraints: 
                CA:FALSE
            X509v3 Extended Key Usage: 
                TLS Web Client Authentication
            X509v3 Subject Key Identifier: 
                7A:82:54:DD:5B:CE:0C:83:FB:3B:6D:B6:BB:66:47:AC:AA:3C:EC:F9
            X509v3 Authority Key Identifier: 
                A2:2F:36:0D:D8:61:97:A5:76:DA:7C:62:25:3A:A6:4E:B0:56:87:F7
            Authority Information Access: 
                CA Issuers - URI:http://pki.esodemoapp2.com/ca/root-ca.cer
            X509v3 CRL Distribution Points: 
                Full Name:
                  URI:http://pki.esodemoapp2.com/ca/root-ca.crl
            X509v3 Subject Alternative Name: 
                DNS:client.domain.com
    Signature Algorithm: ecdsa-with-SHA256
    Signature Value:
        30:46:02:21:00:fd:a0:57:99:b8:ab:8c:66:1f:08:33:42:9f:
        f6:df:d5:7d:5a:dd:ae:d9:1a:8c:84:f1:06:e2:cc:27:db:b5:
        0d:02:21:00:a9:62:93:22:7c:b7:3a:62:ab:48:1f:7c:03:68:
        fe:20:31:84:c7:fe:15:13:49:66:5b:8f:64:73:b7:f0:ac:01
-----BEGIN CERTIFICATE-----
MIICojCCAkegAwIBAgIBAzAKBggqhkjOPQQDAjBMMQswCQYDVQQGEwJVUzEPMA0G
A1UECgwGR29vZ2xlMRMwEQYDVQQLDApFbnRlcnByaXNlMRcwFQYDVQQDDA5TaW5n
bGUgUm9vdCBDQTAeFw0yNDEwMjcxMjM1MzlaFw0zNDEwMjcxMjM1MzlaME8xCzAJ
BgNVBAYTAlVTMQ8wDQYDVQQKDAZHb29nbGUxEzARBgNVBAsMCkVudGVycHJpc2Ux
GjAYBgNVBAMMEWNsaWVudC5kb21haW4uY29tMFkwEwYHKoZIzj0CAQYIKoZIzj0D
AQcDQgAE94b4CQLBZQI6xT058GNO7n5COHHW6BO/vilBL5+gOuZ3Decq47QQHgZi
7m2nfdz6teDGtYGwODKLQPWzzkTLzKOCARUwggERMA4GA1UdDwEB/wQEAwIHgDAJ
BgNVHRMEAjAAMBMGA1UdJQQMMAoGCCsGAQUFBwMCMB0GA1UdDgQWBBR6glTdW84M
g/s7bba7Zkesqjzs+TAfBgNVHSMEGDAWgBSiLzYN2GGXpXbafGIlOqZOsFaH9zBF
BggrBgEFBQcBAQQ5MDcwNQYIKwYBBQUHMAKGKWh0dHA6Ly9wa2kuZXNvZGVtb2Fw
cDIuY29tL2NhL3Jvb3QtY2EuY2VyMDoGA1UdHwQzMDEwL6AtoCuGKWh0dHA6Ly9w
a2kuZXNvZGVtb2FwcDIuY29tL2NhL3Jvb3QtY2EuY3JsMBwGA1UdEQQVMBOCEWNs
aWVudC5kb21haW4uY29tMAoGCCqGSM49BAMCA0kAMEYCIQD9oFeZuKuMZh8IM0Kf
9t/VfVrdrtkajITxBuLMJ9u1DQIhAKlikyJ8tzpiq0gffANo/iAxhMf+FRNJZluP
ZHO38KwB
-----END CERTIFICATE-----
