Certificate:
    Data:
        Version: 3 (0x2)
        Serial Number: 4 (0x4)
        Signature Algorithm: ecdsa-with-SHA256
        Issuer: C=US, O=Google, OU=Enterprise, CN=Single Root CA
        Validity
            Not Before: Oct 27 12:39:53 2024 GMT
            Not After : Oct 27 12:39:53 2034 GMT
        Subject: C=US, O=Google, OU=Enterprise, CN=workload1
        Subject Public Key Info:
            Public Key Algorithm: id-ecPublicKey
                Public-Key: (256 bit)
                pub:
                    04:bf:28:5a:80:8b:9e:23:37:3f:ce:58:ff:e8:07:
                    18:3d:dc:04:44:da:a0:5c:77:ae:39:90:90:95:aa:
                    7e:9f:f4:e9:d4:d8:47:a8:dc:15:c7:c6:ac:e4:3f:
                    04:e1:b7:36:f8:a3:80:b5:fe:c0:e9:f1:65:f0:e6:
                    2c:48:8d:2d:a9
                ASN1 OID: prime256v1
                NIST CURVE: P-256
        X509v3 extensions:
            X509v3 Key Usage: critical
                Digital Signature
            X509v3 Basic Constraints: 
                CA:FALSE
            X509v3 Extended Key Usage: 
                TLS Web Client Authentication
            X509v3 Subject Key Identifier: 
                EA:E9:08:08:5B:1F:38:FE:E3:B2:9F:11:B4:93:F8:83:A8:45:C8:68
            X509v3 Authority Key Identifier: 
                A2:2F:36:0D:D8:61:97:A5:76:DA:7C:62:25:3A:A6:4E:B0:56:87:F7
            Authority Information Access: 
                CA Issuers - URI:http://pki.esodemoapp2.com/ca/root-ca.cer
            X509v3 CRL Distribution Points: 
                Full Name:
                  URI:http://pki.esodemoapp2.com/ca/root-ca.crl
            X509v3 Subject Alternative Name: 
                URI:spiffie://domain/workload1
    Signature Algorithm: ecdsa-with-SHA256
    Signature Value:
        30:45:02:20:0e:0f:c6:8d:63:20:74:19:6e:1a:7d:da:29:48:
        3b:a4:9f:17:05:f0:ad:a4:52:ef:19:8b:57:76:72:b8:91:9e:
        02:21:00:c3:b0:7e:05:1c:93:bb:d6:32:2a:b9:f0:da:b1:5c:
        60:a9:af:40:74:33:7e:81:93:26:bd:2e:a7:7c:fc:2e:fd
-----BEGIN CERTIFICATE-----
MIICojCCAkigAwIBAgIBBDAKBggqhkjOPQQDAjBMMQswCQYDVQQGEwJVUzEPMA0G
A1UECgwGR29vZ2xlMRMwEQYDVQQLDApFbnRlcnByaXNlMRcwFQYDVQQDDA5TaW5n
bGUgUm9vdCBDQTAeFw0yNDEwMjcxMjM5NTNaFw0zNDEwMjcxMjM5NTNaMEcxCzAJ
BgNVBAYTAlVTMQ8wDQYDVQQKDAZHb29nbGUxEzARBgNVBAsMCkVudGVycHJpc2Ux
EjAQBgNVBAMMCXdvcmtsb2FkMTBZMBMGByqGSM49AgEGCCqGSM49AwEHA0IABL8o
WoCLniM3P85Y/+gHGD3cBETaoFx3rjmQkJWqfp/06dTYR6jcFcfGrOQ/BOG3Nvij
gLX+wOnxZfDmLEiNLamjggEeMIIBGjAOBgNVHQ8BAf8EBAMCB4AwCQYDVR0TBAIw
ADATBgNVHSUEDDAKBggrBgEFBQcDAjAdBgNVHQ4EFgQU6ukICFsfOP7jsp8RtJP4
g6hFyGgwHwYDVR0jBBgwFoAUoi82Ddhhl6V22nxiJTqmTrBWh/cwRQYIKwYBBQUH
AQEEOTA3MDUGCCsGAQUFBzAChilodHRwOi8vcGtpLmVzb2RlbW9hcHAyLmNvbS9j
YS9yb290LWNhLmNlcjA6BgNVHR8EMzAxMC+gLaArhilodHRwOi8vcGtpLmVzb2Rl
bW9hcHAyLmNvbS9jYS9yb290LWNhLmNybDAlBgNVHREEHjAchhpzcGlmZmllOi8v
ZG9tYWluL3dvcmtsb2FkMTAKBggqhkjOPQQDAgNIADBFAiAOD8aNYyB0GW4afdop
SDuknxcF8K2kUu8Zi1d2criRngIhAMOwfgUck7vWMiq58NqxXGCpr0B0M36Bkya9
Lqd8/C79
-----END CERTIFICATE-----
